target datalayout = "e-m:e-p270:32:32-p271:32:32-p272:64:64-i64:64-i128:128-f80:128-n8:16:32:64-S128"
target triple = "x86_64-unknown-linux-gnu"

%"class.icu_75::UnicodeString" = type { %"class.icu_75::Replaceable", %"union.icu_75::UnicodeString::StackBufferOrFields" }
%"class.icu_75::Replaceable" = type { %"class.icu_75::UObject" }
%"class.icu_75::UObject" = type { ptr }
%"union.icu_75::UnicodeString::StackBufferOrFields" = type { %struct.anon.0, [32 x i8] }
%struct.anon.0 = type { i16, i32, i32, ptr }
%struct.anon = type { i16, [27 x i16] }

; Function Attrs: mustprogress nounwind uwtable
define linkonce_odr noundef i32 @_ZNK6icu_7513UnicodeString14getShortLengthEv(ptr noundef nonnull align 8 dereferenceable(64) %this) #0 comdat align 2 {
entry:
  %this.addr = alloca ptr, align 8
  store ptr %this, ptr %this.addr, align 8
  %this1 = load ptr, ptr %this.addr, align 8
  %fUnion = getelementptr inbounds %"class.icu_75::UnicodeString", ptr %this1, i32 0, i32 1
  %fLengthAndFlags = getelementptr inbounds %struct.anon.0, ptr %fUnion, i32 0, i32 0
  %0 = load i16, ptr %fLengthAndFlags, align 8
  %conv = sext i16 %0 to i32
  %shr = ashr i32 %conv, 5
  ret i32 %shr
}

; Function Attrs: mustprogress nounwind uwtable
define linkonce_odr noundef signext i8 @_ZNK6icu_7513UnicodeString14hasShortLengthEv(ptr noundef nonnull align 8 dereferenceable(64) %this) #0 comdat align 2 {
entry:
  %this.addr = alloca ptr, align 8
  store ptr %this, ptr %this.addr, align 8
  %this1 = load ptr, ptr %this.addr, align 8
  %fUnion = getelementptr inbounds %"class.icu_75::UnicodeString", ptr %this1, i32 0, i32 1
  %fLengthAndFlags = getelementptr inbounds %struct.anon.0, ptr %fUnion, i32 0, i32 0
  %0 = load i16, ptr %fLengthAndFlags, align 8
  %conv = sext i16 %0 to i32
  %cmp = icmp sge i32 %conv, 0
  %conv2 = zext i1 %cmp to i8
  ret i8 %conv2
}

; Function Attrs: mustprogress nounwind uwtable
define linkonce_odr noundef ptr @_ZNK6icu_7513UnicodeString13getArrayStartEv(ptr noundef nonnull align 8 dereferenceable(64) %this) #0 comdat align 2 {
entry:
  %this.addr = alloca ptr, align 8
  store ptr %this, ptr %this.addr, align 8
  %this1 = load ptr, ptr %this.addr, align 8
  %fUnion = getelementptr inbounds %"class.icu_75::UnicodeString", ptr %this1, i32 0, i32 1
  %fLengthAndFlags = getelementptr inbounds %struct.anon.0, ptr %fUnion, i32 0, i32 0
  %0 = load i16, ptr %fLengthAndFlags, align 8
  %conv = sext i16 %0 to i32
  %and = and i32 %conv, 2
  %tobool = icmp ne i32 %and, 0
  br i1 %tobool, label %cond.true, label %cond.false

cond.true:                                        ; preds = %entry
  %fUnion2 = getelementptr inbounds %"class.icu_75::UnicodeString", ptr %this1, i32 0, i32 1
  %fBuffer = getelementptr inbounds %struct.anon, ptr %fUnion2, i32 0, i32 1
  %arraydecay = getelementptr inbounds [27 x i16], ptr %fBuffer, i64 0, i64 0
  br label %cond.end

cond.false:                                       ; preds = %entry
  %fUnion3 = getelementptr inbounds %"class.icu_75::UnicodeString", ptr %this1, i32 0, i32 1
  %fArray = getelementptr inbounds %struct.anon.0, ptr %fUnion3, i32 0, i32 3
  %1 = load ptr, ptr %fArray, align 8
  br label %cond.end

cond.end:                                         ; preds = %cond.false, %cond.true
  %cond = phi ptr [ %arraydecay, %cond.true ], [ %1, %cond.false ]
  ret ptr %cond
}

; Function Attrs: mustprogress uwtable
define linkonce_odr noundef i32 @_ZNK6icu_7513UnicodeString6lengthEv(ptr noundef nonnull align 8 dereferenceable(64) %this) #3 comdat align 2 {
entry:
  %this.addr = alloca ptr, align 8
  store ptr %this, ptr %this.addr, align 8
  %this1 = load ptr, ptr %this.addr, align 8
  %call = call noundef signext i8 @_ZNK6icu_7513UnicodeString14hasShortLengthEv(ptr noundef nonnull align 8 dereferenceable(64) %this1)
  %tobool = icmp ne i8 %call, 0
  br i1 %tobool, label %cond.true, label %cond.false

cond.true:                                        ; preds = %entry
  %call2 = call noundef i32 @_ZNK6icu_7513UnicodeString14getShortLengthEv(ptr noundef nonnull align 8 dereferenceable(64) %this1)
  br label %cond.end

cond.false:                                       ; preds = %entry
  %fUnion = getelementptr inbounds %"class.icu_75::UnicodeString", ptr %this1, i32 0, i32 1
  %fLength = getelementptr inbounds %struct.anon.0, ptr %fUnion, i32 0, i32 1
  %0 = load i32, ptr %fLength, align 4
  br label %cond.end

cond.end:                                         ; preds = %cond.false, %cond.true
  %cond = phi i32 [ %call2, %cond.true ], [ %0, %cond.false ]
  ret i32 %cond
}

; Function Attrs: mustprogress uwtable
define noundef i32 @_ZNK6icu_7513UnicodeString11moveIndex32Eii(ptr noundef nonnull align 8 dereferenceable(64) %this, i32 noundef %index, i32 noundef %delta) #3 align 2 {
entry:
  %this.addr = alloca ptr, align 8
  %index.addr = alloca i32, align 4
  %delta.addr = alloca i32, align 4
  %len = alloca i32, align 4
  %array = alloca ptr, align 8
  %__N = alloca i32, align 4
  %__N32 = alloca i32, align 4
  store ptr %this, ptr %this.addr, align 8
  store i32 %index, ptr %index.addr, align 4
  store i32 %delta, ptr %delta.addr, align 4
  %this1 = load ptr, ptr %this.addr, align 8
  %call = call noundef i32 @_ZNK6icu_7513UnicodeString6lengthEv(ptr noundef nonnull align 8 dereferenceable(64) %this1)
  store i32 %call, ptr %len, align 4
  %0 = load i32, ptr %index.addr, align 4
  %cmp = icmp slt i32 %0, 0
  br i1 %cmp, label %if.then, label %if.else

if.then:                                          ; preds = %entry
  store i32 0, ptr %index.addr, align 4
  br label %if.end4

if.else:                                          ; preds = %entry
  %1 = load i32, ptr %index.addr, align 4
  %2 = load i32, ptr %len, align 4
  %cmp2 = icmp sgt i32 %1, %2
  br i1 %cmp2, label %if.then3, label %if.end

if.then3:                                         ; preds = %if.else
  %3 = load i32, ptr %len, align 4
  store i32 %3, ptr %index.addr, align 4
  br label %if.end

if.end:                                           ; preds = %if.then3, %if.else
  br label %if.end4

if.end4:                                          ; preds = %if.end, %if.then
  %call5 = call noundef ptr @_ZNK6icu_7513UnicodeString13getArrayStartEv(ptr noundef nonnull align 8 dereferenceable(64) %this1)
  store ptr %call5, ptr %array, align 8
  %4 = load i32, ptr %delta.addr, align 4
  %cmp6 = icmp sgt i32 %4, 0
  br i1 %cmp6, label %if.then7, label %if.else30

if.then7:                                         ; preds = %if.end4
  br label %do.body

do.body:                                          ; preds = %if.then7
  %5 = load i32, ptr %delta.addr, align 4
  store i32 %5, ptr %__N, align 4
  br label %while.cond

while.cond:                                       ; preds = %do.end, %do.body
  %6 = load i32, ptr %__N, align 4
  %cmp8 = icmp sgt i32 %6, 0
  br i1 %cmp8, label %land.rhs, label %land.end13

land.rhs:                                         ; preds = %while.cond
  %7 = load i32, ptr %index.addr, align 4
  %8 = load i32, ptr %len, align 4
  %cmp9 = icmp slt i32 %7, %8
  br i1 %cmp9, label %lor.end, label %lor.rhs

lor.rhs:                                          ; preds = %land.rhs
  %9 = load i32, ptr %len, align 4
  %cmp10 = icmp slt i32 %9, 0
  br i1 %cmp10, label %land.rhs11, label %land.end

land.rhs11:                                       ; preds = %lor.rhs
  %10 = load ptr, ptr %array, align 8
  %11 = load i32, ptr %index.addr, align 4
  %idxprom = sext i32 %11 to i64
  %arrayidx = getelementptr inbounds i16, ptr %10, i64 %idxprom
  %12 = load i16, ptr %arrayidx, align 2
  %conv = zext i16 %12 to i32
  %cmp12 = icmp ne i32 %conv, 0
  br label %land.end

land.end:                                         ; preds = %land.rhs11, %lor.rhs
  %13 = phi i1 [ false, %lor.rhs ], [ %cmp12, %land.rhs11 ]
  br label %lor.end

lor.end:                                          ; preds = %land.end, %land.rhs
  %14 = phi i1 [ true, %land.rhs ], [ %13, %land.end ]
  br label %land.end13

land.end13:                                       ; preds = %lor.end, %while.cond
  %15 = phi i1 [ false, %while.cond ], [ %14, %lor.end ]
  br i1 %15, label %while.body, label %while.end

while.body:                                       ; preds = %land.end13
  br label %do.body14

do.body14:                                        ; preds = %while.body
  %16 = load ptr, ptr %array, align 8
  %17 = load i32, ptr %index.addr, align 4
  %inc = add nsw i32 %17, 1
  store i32 %inc, ptr %index.addr, align 4
  %idxprom15 = sext i32 %17 to i64
  %arrayidx16 = getelementptr inbounds i16, ptr %16, i64 %idxprom15
  %18 = load i16, ptr %arrayidx16, align 2
  %conv17 = zext i16 %18 to i32
  %and = and i32 %conv17, -1024
  %cmp18 = icmp eq i32 %and, 55296
  br i1 %cmp18, label %land.lhs.true, label %if.end28

land.lhs.true:                                    ; preds = %do.body14
  %19 = load i32, ptr %index.addr, align 4
  %20 = load i32, ptr %len, align 4
  %cmp19 = icmp ne i32 %19, %20
  br i1 %cmp19, label %land.lhs.true20, label %if.end28

land.lhs.true20:                                  ; preds = %land.lhs.true
  %21 = load ptr, ptr %array, align 8
  %22 = load i32, ptr %index.addr, align 4
  %idxprom21 = sext i32 %22 to i64
  %arrayidx22 = getelementptr inbounds i16, ptr %21, i64 %idxprom21
  %23 = load i16, ptr %arrayidx22, align 2
  %conv23 = zext i16 %23 to i32
  %and24 = and i32 %conv23, -1024
  %cmp25 = icmp eq i32 %and24, 56320
  br i1 %cmp25, label %if.then26, label %if.end28

if.then26:                                        ; preds = %land.lhs.true20
  %24 = load i32, ptr %index.addr, align 4
  %inc27 = add nsw i32 %24, 1
  store i32 %inc27, ptr %index.addr, align 4
  br label %if.end28

if.end28:                                         ; preds = %if.then26, %land.lhs.true20, %land.lhs.true, %do.body14
  br label %do.end

do.end:                                           ; preds = %if.end28
  %25 = load i32, ptr %__N, align 4
  %dec = add nsw i32 %25, -1
  store i32 %dec, ptr %__N, align 4
  br label %while.cond, !llvm.loop !12

while.end:                                        ; preds = %land.end13
  br label %do.end29

do.end29:                                         ; preds = %while.end
  br label %if.end62

if.else30:                                        ; preds = %if.end4
  br label %do.body31

do.body31:                                        ; preds = %if.else30
  %26 = load i32, ptr %delta.addr, align 4
  %sub = sub nsw i32 0, %26
  store i32 %sub, ptr %__N32, align 4
  br label %while.cond33

while.cond33:                                     ; preds = %do.end58, %do.body31
  %27 = load i32, ptr %__N32, align 4
  %cmp34 = icmp sgt i32 %27, 0
  br i1 %cmp34, label %land.rhs35, label %land.end37

land.rhs35:                                       ; preds = %while.cond33
  %28 = load i32, ptr %index.addr, align 4
  %cmp36 = icmp sgt i32 %28, 0
  br label %land.end37

land.end37:                                       ; preds = %land.rhs35, %while.cond33
  %29 = phi i1 [ false, %while.cond33 ], [ %cmp36, %land.rhs35 ]
  br i1 %29, label %while.body38, label %while.end60

while.body38:                                     ; preds = %land.end37
  br label %do.body39

do.body39:                                        ; preds = %while.body38
  %30 = load ptr, ptr %array, align 8
  %31 = load i32, ptr %index.addr, align 4
  %dec40 = add nsw i32 %31, -1
  store i32 %dec40, ptr %index.addr, align 4
  %idxprom41 = sext i32 %dec40 to i64
  %arrayidx42 = getelementptr inbounds i16, ptr %30, i64 %idxprom41
  %32 = load i16, ptr %arrayidx42, align 2
  %conv43 = zext i16 %32 to i32
  %and44 = and i32 %conv43, -1024
  %cmp45 = icmp eq i32 %and44, 56320
  br i1 %cmp45, label %land.lhs.true46, label %if.end57

land.lhs.true46:                                  ; preds = %do.body39
  %33 = load i32, ptr %index.addr, align 4
  %cmp47 = icmp sgt i32 %33, 0
  br i1 %cmp47, label %land.lhs.true48, label %if.end57

land.lhs.true48:                                  ; preds = %land.lhs.true46
  %34 = load ptr, ptr %array, align 8
  %35 = load i32, ptr %index.addr, align 4
  %sub49 = sub nsw i32 %35, 1
  %idxprom50 = sext i32 %sub49 to i64
  %arrayidx51 = getelementptr inbounds i16, ptr %34, i64 %idxprom50
  %36 = load i16, ptr %arrayidx51, align 2
  %conv52 = zext i16 %36 to i32
  %and53 = and i32 %conv52, -1024
  %cmp54 = icmp eq i32 %and53, 55296
  br i1 %cmp54, label %if.then55, label %if.end57

if.then55:                                        ; preds = %land.lhs.true48
  %37 = load i32, ptr %index.addr, align 4
  %dec56 = add nsw i32 %37, -1
  store i32 %dec56, ptr %index.addr, align 4
  br label %if.end57

if.end57:                                         ; preds = %if.then55, %land.lhs.true48, %land.lhs.true46, %do.body39
  br label %do.end58

do.end58:                                         ; preds = %if.end57
  %38 = load i32, ptr %__N32, align 4
  %dec59 = add nsw i32 %38, -1
  store i32 %dec59, ptr %__N32, align 4
  br label %while.cond33, !llvm.loop !13

while.end60:                                      ; preds = %land.end37
  br label %do.end61

do.end61:                                         ; preds = %while.end60
  br label %if.end62

if.end62:                                         ; preds = %do.end61, %do.end29
  %39 = load i32, ptr %index.addr, align 4
  ret i32 %39
}