; Function Attrs: mustprogress nofree norecurse nosync nounwind willreturn memory(read, inaccessiblemem: none) uwtable
define noundef i32 @_ZNK6icu_7513UnicodeString11moveIndex32Eii(ptr nocapture noundef nonnull readonly align 8 dereferenceable(64) %this, i32 noundef %index, i32 noundef %delta) local_unnamed_addr #15 align 2 {
entry:
  %fUnion.i.i = getelementptr inbounds i8, ptr %this, i64 8
  %0 = load i16, ptr %fUnion.i.i, align 8
  %cmp.i.i = icmp slt i16 %0, 0
  %1 = ashr i16 %0, 5
  %shr.i.i = sext i16 %1 to i32
  %fLength.i = getelementptr inbounds i8, ptr %this, i64 12
  %2 = load i32, ptr %fLength.i, align 4
  %cond.i = select i1 %cmp.i.i, i32 %2, i32 %shr.i.i
  %cond.i.fr = freeze i32 %cond.i
  %cmp = icmp slt i32 %index, 0
  %spec.select = tail call i32 @llvm.smin.i32(i32 %cond.i.fr, i32 %index)
  %index.addr.0 = select i1 %cmp, i32 0, i32 %spec.select
  %3 = and i16 %0, 2
  %tobool.not.i = icmp eq i16 %3, 0
  %fBuffer.i = getelementptr inbounds i8, ptr %this, i64 10
  %fArray.i = getelementptr inbounds i8, ptr %this, i64 24
  %4 = load ptr, ptr %fArray.i, align 8
  %cond.i29 = select i1 %tobool.not.i, ptr %4, ptr %fBuffer.i
  %cmp6 = icmp sgt i32 %delta, 0
  br i1 %cmp6, label %while.cond.preheader, label %do.body31

while.cond.preheader:                             ; preds = %entry
  %cmp10 = icmp slt i32 %cond.i.fr, 0
  br i1 %cmp10, label %land.rhs.us, label %land.rhs

land.rhs.us:                                      ; preds = %while.cond.preheader, %do.end.us
  %__N.036.us = phi i32 [ %dec.us, %do.end.us ], [ %delta, %while.cond.preheader ]
  %index.addr.135.us = phi i32 [ %index.addr.2.us, %do.end.us ], [ %index.addr.0, %while.cond.preheader ]
  %cmp9.us = icmp sge i32 %index.addr.135.us, %cond.i.fr
  %idxprom15.us.phi.trans.insert = sext i32 %index.addr.135.us to i64
  %arrayidx16.us.phi.trans.insert = getelementptr inbounds i16, ptr %cond.i29, i64 %idxprom15.us.phi.trans.insert
  %.pre = load i16, ptr %arrayidx16.us.phi.trans.insert, align 2
  %cmp12.not.us = icmp eq i16 %.pre, 0
  %or.cond44 = select i1 %cmp9.us, i1 %cmp12.not.us, i1 false
  br i1 %or.cond44, label %if.end62, label %do.body14.us

do.body14.us:                                     ; preds = %land.rhs.us
  %inc.us = add nsw i32 %index.addr.135.us, 1
  %5 = and i16 %.pre, -1024
  %cmp18.us = icmp ne i16 %5, -10240
  %cmp19.not.us = icmp eq i32 %inc.us, %cond.i.fr
  %or.cond26.us = select i1 %cmp18.us, i1 true, i1 %cmp19.not.us
  br i1 %or.cond26.us, label %do.end.us, label %land.lhs.true20.us

land.lhs.true20.us:                               ; preds = %do.body14.us
  %idxprom21.us = sext i32 %inc.us to i64
  %arrayidx22.us = getelementptr inbounds i16, ptr %cond.i29, i64 %idxprom21.us
  %6 = load i16, ptr %arrayidx22.us, align 2
  %7 = and i16 %6, -1024
  %cmp25.us = icmp eq i16 %7, -9216
  %inc27.us = add nsw i32 %index.addr.135.us, 2
  %spec.select27.us = select i1 %cmp25.us, i32 %inc27.us, i32 %inc.us
  br label %do.end.us

do.end.us:                                        ; preds = %land.lhs.true20.us, %do.body14.us
  %index.addr.2.us = phi i32 [ %inc.us, %do.body14.us ], [ %spec.select27.us, %land.lhs.true20.us ]
  %dec.us = add nsw i32 %__N.036.us, -1
  %cmp8.us = icmp sgt i32 %__N.036.us, 1
  br i1 %cmp8.us, label %land.rhs.us, label %if.end62, !llvm.loop !13

land.rhs:                                         ; preds = %while.cond.preheader, %do.end
  %__N.036 = phi i32 [ %dec, %do.end ], [ %delta, %while.cond.preheader ]
  %index.addr.135 = phi i32 [ %index.addr.2, %do.end ], [ %index.addr.0, %while.cond.preheader ]
  %cmp9 = icmp slt i32 %index.addr.135, %cond.i.fr
  br i1 %cmp9, label %do.body14, label %if.end62

do.body14:                                        ; preds = %land.rhs
  %inc = add nsw i32 %index.addr.135, 1
  %idxprom15 = sext i32 %index.addr.135 to i64
  %arrayidx16 = getelementptr inbounds i16, ptr %cond.i29, i64 %idxprom15
  %8 = load i16, ptr %arrayidx16, align 2
  %9 = and i16 %8, -1024
  %cmp18 = icmp ne i16 %9, -10240
  %cmp19.not = icmp eq i32 %inc, %cond.i.fr
  %or.cond26 = select i1 %cmp18, i1 true, i1 %cmp19.not
  br i1 %or.cond26, label %do.end, label %land.lhs.true20

land.lhs.true20:                                  ; preds = %do.body14
  %idxprom21 = sext i32 %inc to i64
  %arrayidx22 = getelementptr inbounds i16, ptr %cond.i29, i64 %idxprom21
  %10 = load i16, ptr %arrayidx22, align 2
  %11 = and i16 %10, -1024
  %cmp25 = icmp eq i16 %11, -9216
  %inc27 = add nsw i32 %index.addr.135, 2
  %spec.select27 = select i1 %cmp25, i32 %inc27, i32 %inc
  br label %do.end

do.end:                                           ; preds = %land.lhs.true20, %do.body14
  %index.addr.2 = phi i32 [ %inc, %do.body14 ], [ %spec.select27, %land.lhs.true20 ]
  %dec = add nsw i32 %__N.036, -1
  %cmp8 = icmp sgt i32 %__N.036, 1
  br i1 %cmp8, label %land.rhs, label %if.end62, !llvm.loop !13

do.body31:                                        ; preds = %entry
  %invariant.gep = getelementptr i8, ptr %cond.i29, i64 -4
  %cmp3431 = icmp ne i32 %delta, 0
  %cmp3632 = icmp sgt i32 %index.addr.0, 0
  %12 = and i1 %cmp3431, %cmp3632
  br i1 %12, label %do.body39.preheader, label %if.end62

do.body39.preheader:                              ; preds = %do.body31
  %sub = sub nsw i32 0, %delta
  br label %do.body39

do.body39:                                        ; preds = %do.body39.preheader, %do.end58
  %__N32.034 = phi i32 [ %dec59, %do.end58 ], [ %sub, %do.body39.preheader ]
  %index.addr.333 = phi i32 [ %index.addr.4, %do.end58 ], [ %spec.select, %do.body39.preheader ]
  %dec40 = add nsw i32 %index.addr.333, -1
  %idxprom41 = zext nneg i32 %dec40 to i64
  %arrayidx42 = getelementptr inbounds i16, ptr %cond.i29, i64 %idxprom41
  %13 = load i16, ptr %arrayidx42, align 2
  %14 = and i16 %13, -1024
  %cmp45 = icmp eq i16 %14, -9216
  %cmp47 = icmp ugt i32 %index.addr.333, 1
  %or.cond = and i1 %cmp45, %cmp47
  br i1 %or.cond, label %land.lhs.true48, label %do.end58

land.lhs.true48:                                  ; preds = %do.body39
  %15 = zext nneg i32 %index.addr.333 to i64
  %gep = getelementptr i16, ptr %invariant.gep, i64 %15
  %16 = load i16, ptr %gep, align 2
  %17 = and i16 %16, -1024
  %cmp54 = icmp eq i16 %17, -10240
  %dec56 = add nsw i32 %index.addr.333, -2
  %spec.select28 = select i1 %cmp54, i32 %dec56, i32 %dec40
  br label %do.end58

do.end58:                                         ; preds = %land.lhs.true48, %do.body39
  %index.addr.4 = phi i32 [ %dec40, %do.body39 ], [ %spec.select28, %land.lhs.true48 ]
  %dec59 = add nsw i32 %__N32.034, -1
  %cmp34 = icmp sgt i32 %__N32.034, 1
  %cmp36 = icmp sgt i32 %index.addr.4, 0
  %18 = select i1 %cmp34, i1 %cmp36, i1 false
  br i1 %18, label %do.body39, label %if.end62, !llvm.loop !14

if.end62:                                         ; preds = %do.end58, %do.end, %land.rhs, %do.end.us, %land.rhs.us, %do.body31
  %index.addr.5 = phi i32 [ %index.addr.0, %do.body31 ], [ %index.addr.2.us, %do.end.us ], [ %index.addr.135.us, %land.rhs.us ], [ %index.addr.135, %land.rhs ], [ %index.addr.2, %do.end ], [ %index.addr.4, %do.end58 ]
  ret i32 %index.addr.5
}